; Function Attrs: mustprogress uwtable
define void @_ZN9ezMiniSATC2Ev(ptr noundef nonnull align 8 dereferenceable(376) %0) unnamed_addr #0 align 2 personality ptr @__gxx_personality_v0 {
  tail call void @_ZN5ezSATC2Ev(ptr noundef nonnull align 8 dereferenceable(284) %0)
  store ptr getelementptr inbounds nuw inrange(-16, 48) (i8, ptr @_ZTV9ezMiniSAT, i64 16), ptr %0, align 8, !tbaa !6
  %2 = getelementptr inbounds nuw i8, ptr %0, i64 288
  %3 = getelementptr inbounds nuw i8, ptr %0, i64 296
  %4 = getelementptr inbounds nuw i8, ptr %0, i64 328
  %5 = getelementptr inbounds nuw i8, ptr %0, i64 336
  store i32 0, ptr %5, align 8, !tbaa !9
  %6 = getelementptr inbounds nuw i8, ptr %0, i64 344
  store ptr null, ptr %6, align 8, !tbaa !17
  %7 = getelementptr inbounds nuw i8, ptr %0, i64 352
  %8 = getelementptr inbounds nuw i8, ptr %0, i64 296
  tail call void @llvm.memset.p0.i64(ptr noundef nonnull align 8 dereferenceable(24) %8, i8 0, i64 24, i1 false)
  store ptr %5, ptr %7, align 8, !tbaa !18
  %9 = getelementptr inbounds nuw i8, ptr %0, i64 360
  store ptr %5, ptr %9, align 8, !tbaa !19
  %10 = getelementptr inbounds nuw i8, ptr %0, i64 368
  store i64 0, ptr %10, align 8, !tbaa !20
  store ptr null, ptr %2, align 8, !tbaa !21
  %11 = getelementptr inbounds nuw i8, ptr %0, i64 320
  store i8 0, ptr %11, align 8, !tbaa !62
  %12 = load i32, ptr @_ZN5ezSAT10CONST_TRUEE, align 4, !tbaa !63
  invoke void @_ZN9ezMiniSAT6freezeEi(ptr noundef nonnull align 8 dereferenceable(376) %0, i32 noundef %12)
          to label %13 unwind label %19

13:                                               ; preds = %1
  %14 = load i32, ptr @_ZN5ezSAT11CONST_FALSEE, align 4, !tbaa !63
  %15 = load ptr, ptr %0, align 8, !tbaa !6
  %16 = getelementptr inbounds nuw i8, ptr %15, i64 32
  %17 = load ptr, ptr %16, align 8
  invoke void %17(ptr noundef nonnull align 8 dereferenceable(376) %0, i32 noundef %14)
          to label %18 unwind label %19

18:                                               ; preds = %13
  ret void

19:                                               ; preds = %13, %1
  %20 = landingpad { ptr, i32 }
          cleanup
  tail call void @_ZNSt3setIiSt4lessIiESaIiEED2Ev(ptr noundef nonnull align 8 dereferenceable(48) %4) #21
  %21 = load ptr, ptr %3, align 8, !tbaa !64
  %.not.i.i.i = icmp eq ptr %21, null
  br i1 %.not.i.i.i, label %_ZNSt6vectorIiSaIiEED2Ev.exit, label %22

22:                                               ; preds = %19
  %23 = getelementptr inbounds nuw i8, ptr %0, i64 312
  %24 = load ptr, ptr %23, align 8, !tbaa !65
  %25 = ptrtoint ptr %24 to i64
  %26 = ptrtoint ptr %21 to i64
  %27 = sub i64 %25, %26
  tail call void @_ZdlPvm(ptr noundef nonnull %21, i64 noundef %27) #22
  br label %_ZNSt6vectorIiSaIiEED2Ev.exit

_ZNSt6vectorIiSaIiEED2Ev.exit:                    ; preds = %19, %22
  tail call void @_ZN5ezSATD2Ev(ptr noundef nonnull align 8 dereferenceable(284) %0) #21
  resume { ptr, i32 } %20
}